; ModuleID = '16/969.c'
source_filename = "16/969.c"
target datalayout = "e-m:e-p270:32:32-p271:32:32-p272:64:64-i64:64-f80:128-n8:16:32:64-S128"
target triple = "x86_64-pc-linux-gnu"

@.str = private unnamed_addr constant [3 x i8] c"%d\00", align 1
@.str.1 = private unnamed_addr constant [6 x i8] c"00001\00", align 1
@.str.2 = private unnamed_addr constant [9 x i8] c"%d%d%d%d\00", align 1
@.str.3 = private unnamed_addr constant [7 x i8] c"%d%d%d\00", align 1
@.str.4 = private unnamed_addr constant [5 x i8] c"%d%d\00", align 1

; Function Attrs: noinline nounwind uwtable
define dso_local i32 @main() #0 {
  %1 = alloca i32, align 4
  %2 = alloca i32, align 4
  %3 = alloca i32, align 4
  %4 = alloca i32, align 4
  %5 = alloca i32, align 4
  %6 = alloca i32, align 4
  %7 = alloca i32, align 4
  %8 = alloca i32, align 4
  store i32 0, i32* %1, align 4
  %9 = call i32 (i8*, ...) @__isoc99_scanf(i8* getelementptr inbounds ([3 x i8], [3 x i8]* @.str, i64 0, i64 0), i32* %2)
  %10 = load i32, i32* %2, align 4
  %11 = icmp sgt i32 %10, 9999
  br i1 %11, label %12, label %13

12:                                               ; preds = %0
  store i32 5, i32* %8, align 4
  br label %13

13:                                               ; preds = %12, %0
  %14 = load i32, i32* %2, align 4
  %15 = icmp sgt i32 %14, 999
  br i1 %15, label %16, label %17

16:                                               ; preds = %13
  store i32 4, i32* %8, align 4
  br label %33

17:                                               ; preds = %13
  %18 = load i32, i32* %2, align 4
  %19 = icmp sgt i32 %18, 999
  br i1 %19, label %20, label %21

20:                                               ; preds = %17
  store i32 4, i32* %8, align 4
  br label %32

21:                                               ; preds = %17
  %22 = load i32, i32* %2, align 4
  %23 = icmp sgt i32 %22, 99
  br i1 %23, label %24, label %25

24:                                               ; preds = %21
  store i32 3, i32* %8, align 4
  br label %31

25:                                               ; preds = %21
  %26 = load i32, i32* %2, align 4
  %27 = icmp sgt i32 %26, 9
  br i1 %27, label %28, label %29

28:                                               ; preds = %25
  store i32 2, i32* %8, align 4
  br label %30

29:                                               ; preds = %25
  store i32 1, i32* %8, align 4
  br label %30

30:                                               ; preds = %29, %28
  br label %31

31:                                               ; preds = %30, %24
  br label %32

32:                                               ; preds = %31, %20
  br label %33

33:                                               ; preds = %32, %16
  %34 = load i32, i32* %2, align 4
  %35 = sdiv i32 %34, 1000
  store i32 %35, i32* %6, align 4
  %36 = load i32, i32* %2, align 4
  %37 = sdiv i32 %36, 100
  %38 = srem i32 %37, 10
  store i32 %38, i32* %3, align 4
  %39 = load i32, i32* %2, align 4
  %40 = sdiv i32 %39, 10
  %41 = srem i32 %40, 10
  store i32 %41, i32* %4, align 4
  %42 = load i32, i32* %2, align 4
  %43 = srem i32 %42, 10
  store i32 %43, i32* %5, align 4
  %44 = load i32, i32* %8, align 4
  switch i32 %44, label %65 [
    i32 5, label %45
    i32 4, label %47
    i32 3, label %53
    i32 2, label %58
    i32 1, label %62
  ]

45:                                               ; preds = %33
  %46 = call i32 (i8*, ...) @printf(i8* getelementptr inbounds ([6 x i8], [6 x i8]* @.str.1, i64 0, i64 0))
  br label %65

47:                                               ; preds = %33
  %48 = load i32, i32* %5, align 4
  %49 = load i32, i32* %4, align 4
  %50 = load i32, i32* %3, align 4
  %51 = load i32, i32* %6, align 4
  %52 = call i32 (i8*, ...) @printf(i8* getelementptr inbounds ([9 x i8], [9 x i8]* @.str.2, i64 0, i64 0), i32 %48, i32 %49, i32 %50, i32 %51)
  br label %65

53:                                               ; preds = %33
  %54 = load i32, i32* %5, align 4
  %55 = load i32, i32* %4, align 4
  %56 = load i32, i32* %3, align 4
  %57 = call i32 (i8*, ...) @printf(i8* getelementptr inbounds ([7 x i8], [7 x i8]* @.str.3, i64 0, i64 0), i32 %54, i32 %55, i32 %56)
  br label %65

58:                                               ; preds = %33
  %59 = load i32, i32* %5, align 4
  %60 = load i32, i32* %4, align 4
  %61 = call i32 (i8*, ...) @printf(i8* getelementptr inbounds ([5 x i8], [5 x i8]* @.str.4, i64 0, i64 0), i32 %59, i32 %60)
  br label %65

62:                                               ; preds = %33
  %63 = load i32, i32* %5, align 4
  %64 = call i32 (i8*, ...) @printf(i8* getelementptr inbounds ([3 x i8], [3 x i8]* @.str, i64 0, i64 0), i32 %63)
  br label %65

65:                                               ; preds = %33, %62, %58, %53, %47, %45
  %66 = load i32, i32* %1, align 4
  ret i32 %66
}

declare dso_local i32 @__isoc99_scanf(i8*, ...) #1

declare dso_local i32 @printf(i8*, ...) #1


!llvm.module.flags = !{!0}
!llvm.ident = !{!1}

!0 = !{i32 1, !"wchar_size", i32 4}
!1 = !{!"clang version 10.0.0-4ubuntu1 "}
