; ModuleID = 'source-C-CXX/15/969.c'
source_filename = "source-C-CXX/15/969.c"
target datalayout = "e-m:e-p270:32:32-p271:32:32-p272:64:64-i64:64-f80:128-n8:16:32:64-S128"
target triple = "x86_64-pc-linux-gnu"

@.str = private unnamed_addr constant [3 x i8] c"%d\00", align 1
@.str.2 = private unnamed_addr constant [9 x i8] c"%d%d%d%d\00", align 1
@.str.3 = private unnamed_addr constant [7 x i8] c"%d%d%d\00", align 1
@.str.4 = private unnamed_addr constant [5 x i8] c"%d%d\00", align 1

; Function Attrs: nofree nounwind sspstrong uwtable
define dso_local i32 @main() local_unnamed_addr #0 {
  %1 = alloca i32, align 4
  %2 = bitcast i32* %1 to i8*
  call void @llvm.lifetime.start.p0i8(i64 4, i8* nonnull %2) #3
  %3 = call i32 (i8*, ...) @__isoc99_scanf(i8* getelementptr inbounds ([3 x i8], [3 x i8]* @.str, i64 0, i64 0), i32* nonnull %1)
  %4 = load i32, i32* %1, align 4, !tbaa !5
  %5 = icmp sgt i32 %4, 999
  br i1 %5, label %10, label %6

6:                                                ; preds = %0
  %7 = icmp sgt i32 %4, 99
  br i1 %7, label %18, label %8

8:                                                ; preds = %6
  %9 = icmp sgt i32 %4, 9
  br i1 %9, label %31, label %39

10:                                               ; preds = %0
  %11 = udiv i32 %4, 100
  %12 = urem i32 %11, 10
  %13 = udiv i32 %4, 10
  %14 = urem i32 %13, 10
  %15 = urem i32 %4, 10
  %16 = udiv i32 %4, 1000
  %17 = call i32 (i8*, ...) @printf(i8* nonnull dereferenceable(1) getelementptr inbounds ([9 x i8], [9 x i8]* @.str.2, i64 0, i64 0), i32 %15, i32 %14, i32 %12, i32 %16)
  br label %42

18:                                               ; preds = %6
  %19 = trunc i32 %4 to i16
  %20 = udiv i16 %19, 100
  %21 = trunc i16 %20 to i8
  %22 = urem i8 %21, 10
  %23 = zext i8 %22 to i32
  %24 = udiv i16 %19, 10
  %25 = trunc i16 %24 to i8
  %26 = urem i8 %25, 10
  %27 = zext i8 %26 to i32
  %28 = urem i16 %19, 10
  %29 = zext i16 %28 to i32
  %30 = call i32 (i8*, ...) @printf(i8* nonnull dereferenceable(1) getelementptr inbounds ([7 x i8], [7 x i8]* @.str.3, i64 0, i64 0), i32 %29, i32 %27, i32 %23)
  br label %42

31:                                               ; preds = %8
  %32 = trunc i32 %4 to i8
  %33 = udiv i8 %32, 10
  %34 = urem i8 %33, 10
  %35 = zext i8 %34 to i32
  %36 = urem i8 %32, 10
  %37 = zext i8 %36 to i32
  %38 = call i32 (i8*, ...) @printf(i8* nonnull dereferenceable(1) getelementptr inbounds ([5 x i8], [5 x i8]* @.str.4, i64 0, i64 0), i32 %37, i32 %35)
  br label %42

39:                                               ; preds = %8
  %40 = srem i32 %4, 10
  %41 = call i32 (i8*, ...) @printf(i8* nonnull dereferenceable(1) getelementptr inbounds ([3 x i8], [3 x i8]* @.str, i64 0, i64 0), i32 %40)
  br label %42

42:                                               ; preds = %39, %31, %18, %10
  call void @llvm.lifetime.end.p0i8(i64 4, i8* nonnull %2) #3
  ret i32 0
}

; Function Attrs: argmemonly mustprogress nofree nosync nounwind willreturn
declare void @llvm.lifetime.start.p0i8(i64 immarg, i8* nocapture) #1

; Function Attrs: nofree nounwind
declare noundef i32 @__isoc99_scanf(i8* nocapture noundef readonly, ...) local_unnamed_addr #2

; Function Attrs: nofree nounwind
declare noundef i32 @printf(i8* nocapture noundef readonly, ...) local_unnamed_addr #2

; Function Attrs: argmemonly mustprogress nofree nosync nounwind willreturn
declare void @llvm.lifetime.end.p0i8(i64 immarg, i8* nocapture) #1


!llvm.module.flags = !{!0, !1, !2, !3}
!llvm.ident = !{!4}

!0 = !{i32 1, !"wchar_size", i32 4}
!1 = !{i32 7, !"PIC Level", i32 2}
!2 = !{i32 7, !"PIE Level", i32 2}
!3 = !{i32 7, !"uwtable", i32 1}
!4 = !{!"clang version 13.0.0"}
!5 = !{!6, !6, i64 0}
!6 = !{!"int", !7, i64 0}
!7 = !{!"omnipotent char", !8, i64 0}
!8 = !{!"Simple C/C++ TBAA"}
